target datalayout = "e-m:e-p270:32:32-p271:32:32-p272:64:64-i64:64-i128:128-f80:128-n8:16:32:64-S128"
target triple = "x86_64-pc-linux-gnu"

%struct.AVFilterContext = type { ptr, ptr, ptr, ptr, ptr, i32, ptr, ptr, i32, ptr, ptr, i32, i32, ptr, ptr, ptr, ptr, i32, ptr, i32, i32 }
%struct.TestSourceContext = type { ptr, i32, i32, i32, i32, i32, %struct.AVRational, %struct.AVRational, i64, i64, %struct.AVRational, i32, i32, ptr, ptr, i32, i32, [4 x i8], i32, %struct.FFDrawContext, %struct.FFDrawColor, [4 x i8], [4 x i8], i32, i32, i32, i32, i32, i32, i32, i32, i32, i32, i32, i32, i32, i32, i32, i32, i32, i32, i32, ptr, ptr }
%struct.AVRational = type { i32, i32 }
%struct.FFDrawContext = type { ptr, i32, i32, [4 x i32], [4 x i8], [4 x i8], i8, i8, i32, i32, i32, [3 x [3 x double]] }
%struct.FFDrawColor = type { [4 x i8], [4 x %union.anon.2] }
%union.anon.2 = type { [4 x i32] }

; Function Attrs: nounwind uwtable
define internal i32 @color_process_command(ptr noundef %0, ptr noundef %1, ptr noundef %2, ptr noundef %3, i32 noundef %4, i32 noundef %5) #1 {
  %7 = alloca i32, align 4
  %8 = alloca ptr, align 8
  %9 = alloca ptr, align 8
  %10 = alloca ptr, align 8
  %11 = alloca ptr, align 8
  %12 = alloca i32, align 4
  %13 = alloca i32, align 4
  %14 = alloca ptr, align 8
  %15 = alloca i32, align 4
  %16 = alloca i32, align 4
  store ptr %0, ptr %8, align 8, !tbaa !4
  store ptr %1, ptr %9, align 8, !tbaa !35
  store ptr %2, ptr %10, align 8, !tbaa !35
  store ptr %3, ptr %11, align 8, !tbaa !35
  store i32 %4, ptr %12, align 4, !tbaa !36
  store i32 %5, ptr %13, align 4, !tbaa !36
  call void @llvm.lifetime.start.p0(i64 8, ptr %14) #15
  %17 = load ptr, ptr %8, align 8, !tbaa !4
  %18 = getelementptr inbounds nuw %struct.AVFilterContext, ptr %17, i32 0, i32 9
  %19 = load ptr, ptr %18, align 8, !tbaa !9
  store ptr %19, ptr %14, align 8, !tbaa !22
  call void @llvm.lifetime.start.p0(i64 4, ptr %15) #15
  %20 = load ptr, ptr %8, align 8, !tbaa !4
  %21 = load ptr, ptr %9, align 8, !tbaa !35
  %22 = load ptr, ptr %10, align 8, !tbaa !35
  %23 = load ptr, ptr %11, align 8, !tbaa !35
  %24 = load i32, ptr %12, align 4, !tbaa !36
  %25 = load i32, ptr %13, align 4, !tbaa !36
  %26 = call i32 @ff_filter_process_command(ptr noundef %20, ptr noundef %21, ptr noundef %22, ptr noundef %23, i32 noundef %24, i32 noundef %25)
  store i32 %26, ptr %15, align 4, !tbaa !36
  %27 = load i32, ptr %15, align 4, !tbaa !36
  %28 = icmp slt i32 %27, 0
  br i1 %28, label %29, label %31

29:                                               ; preds = %6
  %30 = load i32, ptr %15, align 4, !tbaa !36
  store i32 %30, ptr %7, align 4
  store i32 1, ptr %16, align 4
  br label %41

31:                                               ; preds = %6
  %32 = load ptr, ptr %14, align 8, !tbaa !22
  %33 = getelementptr inbounds nuw %struct.TestSourceContext, ptr %32, i32 0, i32 19
  %34 = load ptr, ptr %14, align 8, !tbaa !22
  %35 = getelementptr inbounds nuw %struct.TestSourceContext, ptr %34, i32 0, i32 20
  %36 = load ptr, ptr %14, align 8, !tbaa !22
  %37 = getelementptr inbounds nuw %struct.TestSourceContext, ptr %36, i32 0, i32 21
  %38 = getelementptr inbounds [4 x i8], ptr %37, i64 0, i64 0
  call void @ff_draw_color(ptr noundef %33, ptr noundef %35, ptr noundef %38)
  %39 = load ptr, ptr %14, align 8, !tbaa !22
  %40 = getelementptr inbounds nuw %struct.TestSourceContext, ptr %39, i32 0, i32 12
  store i32 1, ptr %40, align 4, !tbaa !37
  store i32 0, ptr %7, align 4
  store i32 1, ptr %16, align 4
  br label %41

41:                                               ; preds = %31, %29
  call void @llvm.lifetime.end.p0(i64 4, ptr %15) #15
  call void @llvm.lifetime.end.p0(i64 8, ptr %14) #15
  %42 = load i32, ptr %7, align 4
  ret i32 %42
}