; Function Attrs: nounwind uwtable
define internal range(i32 -2147483648, 1) i32 @color_process_command(ptr noundef %0, ptr noundef %1, ptr noundef %2, ptr noundef %3, i32 noundef %4, i32 noundef %5) #1 {
  %7 = getelementptr inbounds nuw i8, ptr %0, i64 72
  %8 = load ptr, ptr %7, align 8, !tbaa !4
  %9 = tail call i32 @ff_filter_process_command(ptr noundef %0, ptr noundef %1, ptr noundef %2, ptr noundef %3, i32 noundef %4, i32 noundef %5) #20
  %10 = icmp slt i32 %9, 0
  br i1 %10, label %16, label %11

11:                                               ; preds = %6
  %12 = getelementptr inbounds nuw i8, ptr %8, i64 112
  %13 = getelementptr inbounds nuw i8, ptr %8, i64 240
  %14 = getelementptr inbounds nuw i8, ptr %8, i64 308
  tail call void @ff_draw_color(ptr noundef nonnull %12, ptr noundef nonnull %13, ptr noundef nonnull %14) #20
  %15 = getelementptr inbounds nuw i8, ptr %8, i64 76
  store i32 1, ptr %15, align 4, !tbaa !29
  br label %16

16:                                               ; preds = %6, %11
  %.0 = phi i32 [ 0, %11 ], [ %9, %6 ]
  ret i32 %.0
}